; ModuleID = '31/1087.c'
source_filename = "31/1087.c"
target datalayout = "e-m:e-p270:32:32-p271:32:32-p272:64:64-i64:64-f80:128-n8:16:32:64-S128"
target triple = "x86_64-pc-linux-gnu"

%struct.Student = type { [10 x i8], [100 x i8], i8, [10 x i8], [10 x i8], [20 x i8] }

@.str = private unnamed_addr constant [4 x i8] c"%s \00", align 1
@stu = common dso_local global [1000 x %struct.Student] zeroinitializer, align 16
@.str.1 = private unnamed_addr constant [16 x i8] c"%s %c %s %s %s\0A\00", align 1
@.str.2 = private unnamed_addr constant [19 x i8] c"%s %s %c %s %s %s\0A\00", align 1

; Function Attrs: noinline nounwind uwtable
define dso_local i32 @main() #0 {
  %1 = alloca i32, align 4
  %2 = alloca i32, align 4
  %3 = alloca i32, align 4
  store i32 0, i32* %1, align 4
  store i32 0, i32* %3, align 4
  store i32 0, i32* %2, align 4
  br label %4

4:                                                ; preds = %49, %0
  %5 = load i32, i32* %2, align 4
  %6 = sext i32 %5 to i64
  %7 = getelementptr inbounds [1000 x %struct.Student], [1000 x %struct.Student]* @stu, i64 0, i64 %6
  %8 = getelementptr inbounds %struct.Student, %struct.Student* %7, i32 0, i32 0
  %9 = getelementptr inbounds [10 x i8], [10 x i8]* %8, i64 0, i64 0
  %10 = call i32 (i8*, ...) @__isoc99_scanf(i8* getelementptr inbounds ([4 x i8], [4 x i8]* @.str, i64 0, i64 0), i8* %9)
  %11 = load i32, i32* %2, align 4
  %12 = sext i32 %11 to i64
  %13 = getelementptr inbounds [1000 x %struct.Student], [1000 x %struct.Student]* @stu, i64 0, i64 %12
  %14 = getelementptr inbounds %struct.Student, %struct.Student* %13, i32 0, i32 0
  %15 = getelementptr inbounds [10 x i8], [10 x i8]* %14, i64 0, i64 0
  %16 = load i8, i8* %15, align 1
  %17 = sext i8 %16 to i32
  %18 = icmp eq i32 %17, 101
  br i1 %18, label %19, label %20

19:                                               ; preds = %4
  br label %52

20:                                               ; preds = %4
  %21 = load i32, i32* %2, align 4
  %22 = sext i32 %21 to i64
  %23 = getelementptr inbounds [1000 x %struct.Student], [1000 x %struct.Student]* @stu, i64 0, i64 %22
  %24 = getelementptr inbounds %struct.Student, %struct.Student* %23, i32 0, i32 1
  %25 = getelementptr inbounds [100 x i8], [100 x i8]* %24, i64 0, i64 0
  %26 = load i32, i32* %2, align 4
  %27 = sext i32 %26 to i64
  %28 = getelementptr inbounds [1000 x %struct.Student], [1000 x %struct.Student]* @stu, i64 0, i64 %27
  %29 = getelementptr inbounds %struct.Student, %struct.Student* %28, i32 0, i32 2
  %30 = load i32, i32* %2, align 4
  %31 = sext i32 %30 to i64
  %32 = getelementptr inbounds [1000 x %struct.Student], [1000 x %struct.Student]* @stu, i64 0, i64 %31
  %33 = getelementptr inbounds %struct.Student, %struct.Student* %32, i32 0, i32 3
  %34 = getelementptr inbounds [10 x i8], [10 x i8]* %33, i64 0, i64 0
  %35 = load i32, i32* %2, align 4
  %36 = sext i32 %35 to i64
  %37 = getelementptr inbounds [1000 x %struct.Student], [1000 x %struct.Student]* @stu, i64 0, i64 %36
  %38 = getelementptr inbounds %struct.Student, %struct.Student* %37, i32 0, i32 4
  %39 = getelementptr inbounds [10 x i8], [10 x i8]* %38, i64 0, i64 0
  %40 = load i32, i32* %2, align 4
  %41 = sext i32 %40 to i64
  %42 = getelementptr inbounds [1000 x %struct.Student], [1000 x %struct.Student]* @stu, i64 0, i64 %41
  %43 = getelementptr inbounds %struct.Student, %struct.Student* %42, i32 0, i32 5
  %44 = getelementptr inbounds [20 x i8], [20 x i8]* %43, i64 0, i64 0
  %45 = call i32 (i8*, ...) @__isoc99_scanf(i8* getelementptr inbounds ([16 x i8], [16 x i8]* @.str.1, i64 0, i64 0), i8* %25, i8* %29, i8* %34, i8* %39, i8* %44)
  %46 = load i32, i32* %3, align 4
  %47 = add nsw i32 %46, 1
  store i32 %47, i32* %3, align 4
  br label %48

48:                                               ; preds = %20
  br label %49

49:                                               ; preds = %48
  %50 = load i32, i32* %2, align 4
  %51 = add nsw i32 %50, 1
  store i32 %51, i32* %2, align 4
  br label %4

52:                                               ; preds = %19
  %53 = load i32, i32* %3, align 4
  %54 = sub nsw i32 %53, 1
  store i32 %54, i32* %2, align 4
  br label %55

55:                                               ; preds = %91, %52
  %56 = load i32, i32* %2, align 4
  %57 = icmp sge i32 %56, 0
  br i1 %57, label %58, label %94

58:                                               ; preds = %55
  %59 = load i32, i32* %2, align 4
  %60 = sext i32 %59 to i64
  %61 = getelementptr inbounds [1000 x %struct.Student], [1000 x %struct.Student]* @stu, i64 0, i64 %60
  %62 = getelementptr inbounds %struct.Student, %struct.Student* %61, i32 0, i32 0
  %63 = getelementptr inbounds [10 x i8], [10 x i8]* %62, i64 0, i64 0
  %64 = load i32, i32* %2, align 4
  %65 = sext i32 %64 to i64
  %66 = getelementptr inbounds [1000 x %struct.Student], [1000 x %struct.Student]* @stu, i64 0, i64 %65
  %67 = getelementptr inbounds %struct.Student, %struct.Student* %66, i32 0, i32 1
  %68 = getelementptr inbounds [100 x i8], [100 x i8]* %67, i64 0, i64 0
  %69 = load i32, i32* %2, align 4
  %70 = sext i32 %69 to i64
  %71 = getelementptr inbounds [1000 x %struct.Student], [1000 x %struct.Student]* @stu, i64 0, i64 %70
  %72 = getelementptr inbounds %struct.Student, %struct.Student* %71, i32 0, i32 2
  %73 = load i8, i8* %72, align 1
  %74 = sext i8 %73 to i32
  %75 = load i32, i32* %2, align 4
  %76 = sext i32 %75 to i64
  %77 = getelementptr inbounds [1000 x %struct.Student], [1000 x %struct.Student]* @stu, i64 0, i64 %76
  %78 = getelementptr inbounds %struct.Student, %struct.Student* %77, i32 0, i32 3
  %79 = getelementptr inbounds [10 x i8], [10 x i8]* %78, i64 0, i64 0
  %80 = load i32, i32* %2, align 4
  %81 = sext i32 %80 to i64
  %82 = getelementptr inbounds [1000 x %struct.Student], [1000 x %struct.Student]* @stu, i64 0, i64 %81
  %83 = getelementptr inbounds %struct.Student, %struct.Student* %82, i32 0, i32 4
  %84 = getelementptr inbounds [10 x i8], [10 x i8]* %83, i64 0, i64 0
  %85 = load i32, i32* %2, align 4
  %86 = sext i32 %85 to i64
  %87 = getelementptr inbounds [1000 x %struct.Student], [1000 x %struct.Student]* @stu, i64 0, i64 %86
  %88 = getelementptr inbounds %struct.Student, %struct.Student* %87, i32 0, i32 5
  %89 = getelementptr inbounds [20 x i8], [20 x i8]* %88, i64 0, i64 0
  %90 = call i32 (i8*, ...) @printf(i8* getelementptr inbounds ([19 x i8], [19 x i8]* @.str.2, i64 0, i64 0), i8* %63, i8* %68, i32 %74, i8* %79, i8* %84, i8* %89)
  br label %91

91:                                               ; preds = %58
  %92 = load i32, i32* %2, align 4
  %93 = add nsw i32 %92, -1
  store i32 %93, i32* %2, align 4
  br label %55

94:                                               ; preds = %55
  %95 = load i32, i32* %1, align 4
  ret i32 %95
}

declare dso_local i32 @__isoc99_scanf(i8*, ...) #1

declare dso_local i32 @printf(i8*, ...) #1


!llvm.module.flags = !{!0}
!llvm.ident = !{!1}

!0 = !{i32 1, !"wchar_size", i32 4}
!1 = !{!"clang version 10.0.0-4ubuntu1 "}
